Certificate:
    Data:
        Version: 3 (0x2)
        Serial Number:
            34:bd:57:e6:21:c3:94:ec:f1:6d:35:6d:f0:8e:57:28:a6:47:f7:dc
        Signature Algorithm: sha256WithRSAEncryption
        Issuer: C=FR, ST=Ile-de-France, O=Dreamquark, OU=Brain Team, CN=Brain Local Certificates/emailAddress=admin@dreamquark.com
        Validity
            Not Before: Mar  4 17:42:39 2021 GMT
            Not After : Jun  6 17:42:39 2023 GMT
        Subject: C=FR, ST=Ile-de-France, O=Dreamquark, OU=Brain Team, CN=localhost/emailAddress=admin@dreamquark.com
        Subject Public Key Info:
            Public Key Algorithm: rsaEncryption
                RSA Public-Key: (4096 bit)
                Modulus:
                    00:b6:87:74:43:d2:35:9f:be:3d:2d:da:b2:50:ad:
                    6c:a6:49:d7:ee:f5:32:d8:5b:97:b1:e8:25:91:61:
                    4d:a4:10:72:c3:e6:1b:79:c9:a5:e4:a6:e6:ce:c4:
                    9f:13:0e:18:c6:31:65:bc:22:90:12:87:aa:ca:34:
                    3d:73:29:eb:8c:df:8d:32:17:46:f6:ca:75:c6:08:
                    79:a9:ac:0b:41:ba:b3:7e:84:d1:ec:d9:b8:f7:78:
                    f6:1f:e6:4c:d8:17:04:f8:31:da:7b:5b:19:6c:4e:
                    e4:ce:39:10:dc:bf:8c:4b:e1:9d:dd:1f:30:15:2f:
                    7d:ea:6c:23:56:b7:94:e0:ce:bf:86:78:b4:5f:67:
                    82:44:75:9c:e6:c3:96:ff:e2:d6:a2:16:f3:35:e6:
                    40:be:90:4b:40:f2:85:52:49:9a:8f:ec:11:fc:58:
                    1e:4c:04:12:01:a7:e1:a3:11:a1:6c:e3:af:86:b9:
                    dd:6b:62:8d:5c:cf:ab:0c:5c:65:ae:dd:a3:97:0e:
                    3c:cd:15:ce:50:45:f7:30:66:fd:35:0a:82:79:14:
                    03:2c:2c:cd:16:ab:81:87:98:18:08:ae:cb:94:24:
                    74:a8:de:2c:2e:d8:da:49:db:5b:66:cf:6c:7d:43:
                    18:b5:78:c2:c8:64:74:2e:15:a7:38:91:8d:25:ea:
                    30:4d:c8:50:df:81:c9:77:4f:b7:a9:2a:5c:79:1a:
                    59:9d:e2:11:a1:0e:c2:73:45:17:41:82:9a:1a:43:
                    c5:b3:3f:c2:29:a1:0a:d7:68:36:8d:4e:d4:fa:5b:
                    0f:aa:83:f9:fd:0d:1e:48:96:b4:ce:3f:b1:a9:c6:
                    2c:07:9b:39:7c:87:37:8e:47:eb:97:ca:0b:f4:e8:
                    38:74:fc:67:76:9e:14:13:96:93:72:c2:3d:00:28:
                    91:0f:c4:4a:72:c8:2b:8f:f2:aa:dd:00:14:08:0f:
                    70:bd:34:c2:e3:48:dd:82:9d:11:a8:24:8d:b5:af:
                    26:d3:a4:91:2e:69:19:b7:17:bf:a8:42:30:cd:32:
                    a4:8c:18:a5:ce:00:53:61:e8:81:06:d3:0d:3c:ec:
                    e5:82:e4:32:2f:e1:89:a9:59:cd:6d:ab:dd:29:93:
                    15:00:59:2d:3a:55:0c:3e:44:e9:c0:ca:1c:75:2f:
                    25:41:b6:c7:0b:33:53:4b:d3:68:8c:de:44:16:b8:
                    5c:b2:24:92:27:1c:b9:57:2d:d2:42:a0:f4:81:a2:
                    18:2f:21:6b:db:5c:b6:ae:2e:87:be:35:b2:43:ff:
                    b9:36:28:4c:43:7c:17:da:92:0a:56:5a:05:7e:aa:
                    12:d6:60:a8:5f:5d:a8:43:05:7c:91:d8:33:83:2b:
                    43:ba:21
                Exponent: 65537 (0x10001)
        X509v3 extensions:
            X509v3 Subject Alternative Name: 
                DNS:localhost
    Signature Algorithm: sha256WithRSAEncryption
         5e:76:e0:1b:17:32:10:5e:b5:30:ed:51:e9:6f:7b:74:e7:29:
         27:86:32:44:d1:ea:92:6d:ad:f0:68:46:e8:4a:2a:98:ed:b8:
         3b:ab:f9:06:d9:81:95:c8:c4:94:18:db:5d:4e:73:dd:47:8d:
         e3:91:c3:37:c5:6d:3e:73:57:87:46:67:8c:4f:1c:d4:4e:8e:
         f9:34:6a:59:dc:64:3c:e0:41:1b:17:ae:bd:b6:5b:db:e6:a5:
         92:51:53:2f:16:54:7c:4c:a3:94:76:6e:85:66:51:35:5b:3b:
         e7:db:94:09:db:e6:e5:97:6f:fb:6f:50:32:ae:03:3b:66:1e:
         ff:d1:43:98:84:ca:5e:7e:05:75:ac:8b:93:8c:aa:2d:53:1e:
         88:2a:38:c9:4b:3b:25:ca:f2:d3:67:1f:3c:de:f3:05:c1:25:
         a2:c2:cd:16:6c:ec:b9:ef:ee:f0:f6:1a:ad:80:37:3a:75:6d:
         35:48:c4:d8:92:5b:09:af:72:b1:26:e1:1f:52:52:8c:49:60:
         32:12:1e:c6:bf:40:3b:80:61:ea:05:76:29:1b:9e:3f:cb:d1:
         cd:bc:06:9a:a4:dd:62:f6:d6:6c:20:f7:9e:75:e4:1e:f7:eb:
         c8:7c:9e:77:3b:85:29:90:30:28:5b:f5:93:e0:ea:54:1d:e0:
         4a:1b:e4:c5:2e:d0:13:eb:f7:00:c6:dc:3a:2c:4d:dd:b0:71:
         73:b5:8b:52:b1:8b:ae:c1:f1:18:f4:86:75:04:a7:78:d2:7b:
         12:45:97:9a:aa:db:66:84:1f:b6:31:c0:ab:a8:18:9f:3c:f9:
         53:db:92:68:ae:c8:65:ca:b9:f2:22:de:6f:2f:f8:07:56:e0:
         2b:58:ef:6c:73:6c:b1:58:37:6d:7a:c1:e0:33:df:3e:56:ab:
         0c:25:dd:51:66:6b:b1:ba:1f:a1:3c:cf:d1:ec:e6:04:91:75:
         e6:52:a9:87:43:79:3f:ab:00:1e:72:29:30:79:f9:af:82:4b:
         cd:0a:e2:88:c2:4d:9d:62:de:07:8c:e0:8a:3f:34:e3:c2:47:
         b6:07:11:e2:9c:9d:61:d3:53:43:82:87:7e:dc:c3:ee:99:ea:
         af:bb:1f:0f:c7:6a:6d:16:e6:ac:27:a6:93:8b:12:93:a7:02:
         8f:8b:7a:b2:75:67:b2:d1:42:de:b3:34:a6:16:c6:d9:27:00:
         9d:5f:ba:01:31:e4:49:d8:87:db:a2:ec:40:e1:73:84:48:0b:
         c7:2f:6d:0f:34:8f:f5:55:c2:35:f2:79:e4:c2:cb:09:32:6e:
         df:49:c0:f0:e1:2c:8c:f8:ce:cc:7f:2e:cc:e7:ce:a9:de:ed:
         be:07:9f:51:bc:9e:bd:97
-----BEGIN CERTIFICATE-----
MIIFxzCCA6+gAwIBAgIUNL1X5iHDlOzxbTVt8I5XKKZH99wwDQYJKoZIhvcNAQEL
BQAwgZcxCzAJBgNVBAYTAkZSMRYwFAYDVQQIDA1JbGUtZGUtRnJhbmNlMRMwEQYD
VQQKDApEcmVhbXF1YXJrMRMwEQYDVQQLDApCcmFpbiBUZWFtMSEwHwYDVQQDDBhC
cmFpbiBMb2NhbCBDZXJ0aWZpY2F0ZXMxIzAhBgkqhkiG9w0BCQEWFGFkbWluQGRy
ZWFtcXVhcmsuY29tMB4XDTIxMDMwNDE3NDIzOVoXDTIzMDYwNjE3NDIzOVowgYgx
CzAJBgNVBAYTAkZSMRYwFAYDVQQIDA1JbGUtZGUtRnJhbmNlMRMwEQYDVQQKDApE
cmVhbXF1YXJrMRMwEQYDVQQLDApCcmFpbiBUZWFtMRIwEAYDVQQDDAlsb2NhbGhv
c3QxIzAhBgkqhkiG9w0BCQEWFGFkbWluQGRyZWFtcXVhcmsuY29tMIICIjANBgkq
hkiG9w0BAQEFAAOCAg8AMIICCgKCAgEAtod0Q9I1n749LdqyUK1spknX7vUy2FuX
seglkWFNpBByw+Ybecml5KbmzsSfEw4YxjFlvCKQEoeqyjQ9cynrjN+NMhdG9sp1
xgh5qawLQbqzfoTR7Nm493j2H+ZM2BcE+DHae1sZbE7kzjkQ3L+MS+Gd3R8wFS99
6mwjVreU4M6/hni0X2eCRHWc5sOW/+LWohbzNeZAvpBLQPKFUkmaj+wR/FgeTAQS
AafhoxGhbOOvhrnda2KNXM+rDFxlrt2jlw48zRXOUEX3MGb9NQqCeRQDLCzNFquB
h5gYCK7LlCR0qN4sLtjaSdtbZs9sfUMYtXjCyGR0LhWnOJGNJeowTchQ34HJd0+3
qSpceRpZneIRoQ7Cc0UXQYKaGkPFsz/CKaEK12g2jU7U+lsPqoP5/Q0eSJa0zj+x
qcYsB5s5fIc3jkfrl8oL9Og4dPxndp4UE5aTcsI9ACiRD8RKcsgrj/Kq3QAUCA9w
vTTC40jdgp0RqCSNta8m06SRLmkZtxe/qEIwzTKkjBilzgBTYeiBBtMNPOzlguQy
L+GJqVnNbavdKZMVAFktOlUMPkTpwMocdS8lQbbHCzNTS9NojN5EFrhcsiSSJxy5
Vy3SQqD0gaIYLyFr21y2ri6HvjWyQ/+5NihMQ3wX2pIKVloFfqoS1mCoX12oQwV8
kdgzgytDuiECAwEAAaMYMBYwFAYDVR0RBA0wC4IJbG9jYWxob3N0MA0GCSqGSIb3
DQEBCwUAA4ICAQBeduAbFzIQXrUw7VHpb3t05yknhjJE0eqSba3waEboSiqY7bg7
q/kG2YGVyMSUGNtdTnPdR43jkcM3xW0+c1eHRmeMTxzUTo75NGpZ3GQ84EEbF669
tlvb5qWSUVMvFlR8TKOUdm6FZlE1Wzvn25QJ2+bll2/7b1AyrgM7Zh7/0UOYhMpe
fgV1rIuTjKotUx6IKjjJSzslyvLTZx883vMFwSWiws0WbOy57+7w9hqtgDc6dW01
SMTYklsJr3KxJuEfUlKMSWAyEh7Gv0A7gGHqBXYpG54/y9HNvAaapN1i9tZsIPee
deQe9+vIfJ53O4UpkDAoW/WT4OpUHeBKG+TFLtAT6/cAxtw6LE3dsHFztYtSsYuu
wfEY9IZ1BKd40nsSRZeaqttmhB+2McCrqBifPPlT25JorshlyrnyIt5vL/gHVuAr
WO9sc2yxWDdtesHgM98+VqsMJd1RZmuxuh+hPM/R7OYEkXXmUqmHQ3k/qwAecikw
efmvgkvNCuKIwk2dYt4HjOCKPzTjwke2BxHinJ1h01NDgod+3MPumeqvux8Px2pt
FuasJ6aTixKTpwKPi3qydWey0ULeszSmFsbZJwCdX7oBMeRJ2IfbouxA4XOESAvH
L20PNI/1VcI18nnkwssJMm7fScDw4SyM+M7Mfy7M586p3u2+B59RvJ69lw==
-----END CERTIFICATE-----
